; ModuleID = '17/727.c'
source_filename = "17/727.c"
target datalayout = "e-m:e-p270:32:32-p271:32:32-p272:64:64-i64:64-f80:128-n8:16:32:64-S128"
target triple = "x86_64-pc-linux-gnu"

; Function Attrs: noinline nounwind uwtable
define dso_local i32 @main() #0 {
  %1 = alloca i32, align 4
  %2 = alloca [150 x i8], align 16
  %3 = alloca [150 x i8], align 16
  %4 = alloca i32, align 4
  %5 = alloca i32, align 4
  %6 = alloca i32, align 4
  %7 = alloca i32, align 4
  store i32 0, i32* %1, align 4
  %8 = bitcast [150 x i8]* %3 to i8*
  call void @llvm.memset.p0i8.i64(i8* align 16 %8, i8 0, i64 150, i1 false)
  store i32 11, i32* %6, align 4
  store i32 1, i32* %7, align 4
  br label %9

9:                                                ; preds = %168, %0
  %10 = load i32, i32* %7, align 4
  %11 = icmp sle i32 %10, 10
  br i1 %11, label %12, label %171

12:                                               ; preds = %9
  store i32 0, i32* %4, align 4
  br label %13

13:                                               ; preds = %24, %12
  %14 = load i32, i32* %4, align 4
  %15 = load i32, i32* %6, align 4
  %16 = icmp sle i32 %14, %15
  br i1 %16, label %17, label %27

17:                                               ; preds = %13
  %18 = load i32, i32* %4, align 4
  %19 = sext i32 %18 to i64
  %20 = getelementptr inbounds [150 x i8], [150 x i8]* %2, i64 0, i64 %19
  store i8 32, i8* %20, align 1
  %21 = load i32, i32* %4, align 4
  %22 = sext i32 %21 to i64
  %23 = getelementptr inbounds [150 x i8], [150 x i8]* %3, i64 0, i64 %22
  store i8 0, i8* %23, align 1
  br label %24

24:                                               ; preds = %17
  %25 = load i32, i32* %4, align 4
  %26 = add nsw i32 %25, 1
  store i32 %26, i32* %4, align 4
  br label %13

27:                                               ; preds = %13
  %28 = getelementptr inbounds [150 x i8], [150 x i8]* %2, i64 0, i64 0
  %29 = call i32 (i8*, ...) bitcast (i32 (...)* @gets to i32 (i8*, ...)*)(i8* %28)
  %30 = getelementptr inbounds [150 x i8], [150 x i8]* %2, i64 0, i64 0
  %31 = call i64 @strlen(i8* %30) #4
  %32 = trunc i64 %31 to i32
  store i32 %32, i32* %6, align 4
  store i32 0, i32* %4, align 4
  br label %33

33:                                               ; preds = %80, %27
  %34 = load i32, i32* %4, align 4
  %35 = sext i32 %34 to i64
  %36 = getelementptr inbounds [150 x i8], [150 x i8]* %2, i64 0, i64 %35
  %37 = load i8, i8* %36, align 1
  %38 = sext i8 %37 to i32
  %39 = icmp eq i32 %38, 0
  br i1 %39, label %40, label %41

40:                                               ; preds = %33
  br label %83

41:                                               ; preds = %33
  %42 = load i32, i32* %4, align 4
  %43 = sext i32 %42 to i64
  %44 = getelementptr inbounds [150 x i8], [150 x i8]* %2, i64 0, i64 %43
  %45 = load i8, i8* %44, align 1
  %46 = sext i8 %45 to i32
  %47 = icmp eq i32 %46, 41
  br i1 %47, label %48, label %79

48:                                               ; preds = %41
  %49 = load i32, i32* %4, align 4
  store i32 %49, i32* %5, align 4
  br label %50

50:                                               ; preds = %65, %48
  %51 = load i32, i32* %5, align 4
  %52 = icmp sge i32 %51, 0
  br i1 %52, label %53, label %68

53:                                               ; preds = %50
  %54 = load i32, i32* %5, align 4
  %55 = sext i32 %54 to i64
  %56 = getelementptr inbounds [150 x i8], [150 x i8]* %2, i64 0, i64 %55
  %57 = load i8, i8* %56, align 1
  %58 = sext i8 %57 to i32
  %59 = icmp eq i32 %58, 40
  br i1 %59, label %60, label %64

60:                                               ; preds = %53
  %61 = load i32, i32* %5, align 4
  %62 = sext i32 %61 to i64
  %63 = getelementptr inbounds [150 x i8], [150 x i8]* %2, i64 0, i64 %62
  store i8 33, i8* %63, align 1
  br label %68

64:                                               ; preds = %53
  br label %65

65:                                               ; preds = %64
  %66 = load i32, i32* %5, align 4
  %67 = add nsw i32 %66, -1
  store i32 %67, i32* %5, align 4
  br label %50

68:                                               ; preds = %60, %50
  %69 = load i32, i32* %5, align 4
  %70 = icmp slt i32 %69, 0
  br i1 %70, label %71, label %78

71:                                               ; preds = %68
  %72 = load i32, i32* %4, align 4
  %73 = sext i32 %72 to i64
  %74 = getelementptr inbounds [150 x i8], [150 x i8]* %2, i64 0, i64 %73
  store i8 63, i8* %74, align 1
  %75 = load i32, i32* %4, align 4
  %76 = sext i32 %75 to i64
  %77 = getelementptr inbounds [150 x i8], [150 x i8]* %3, i64 0, i64 %76
  store i8 63, i8* %77, align 1
  br label %78

78:                                               ; preds = %71, %68
  br label %79

79:                                               ; preds = %78, %41
  br label %80

80:                                               ; preds = %79
  %81 = load i32, i32* %4, align 4
  %82 = add nsw i32 %81, 1
  store i32 %82, i32* %4, align 4
  br label %33

83:                                               ; preds = %40
  store i32 0, i32* %4, align 4
  br label %84

84:                                               ; preds = %107, %83
  %85 = load i32, i32* %4, align 4
  %86 = sext i32 %85 to i64
  %87 = getelementptr inbounds [150 x i8], [150 x i8]* %2, i64 0, i64 %86
  %88 = load i8, i8* %87, align 1
  %89 = sext i8 %88 to i32
  %90 = icmp eq i32 %89, 40
  br i1 %90, label %91, label %98

91:                                               ; preds = %84
  %92 = load i32, i32* %4, align 4
  %93 = sext i32 %92 to i64
  %94 = getelementptr inbounds [150 x i8], [150 x i8]* %2, i64 0, i64 %93
  store i8 33, i8* %94, align 1
  %95 = load i32, i32* %4, align 4
  %96 = sext i32 %95 to i64
  %97 = getelementptr inbounds [150 x i8], [150 x i8]* %3, i64 0, i64 %96
  store i8 36, i8* %97, align 1
  br label %98

98:                                               ; preds = %91, %84
  %99 = load i32, i32* %4, align 4
  %100 = sext i32 %99 to i64
  %101 = getelementptr inbounds [150 x i8], [150 x i8]* %2, i64 0, i64 %100
  %102 = load i8, i8* %101, align 1
  %103 = sext i8 %102 to i32
  %104 = icmp eq i32 %103, 0
  br i1 %104, label %105, label %106

105:                                              ; preds = %98
  br label %110

106:                                              ; preds = %98
  br label %107

107:                                              ; preds = %106
  %108 = load i32, i32* %4, align 4
  %109 = add nsw i32 %108, 1
  store i32 %109, i32* %4, align 4
  br label %84

110:                                              ; preds = %105
  store i32 0, i32* %4, align 4
  br label %111

111:                                              ; preds = %160, %110
  %112 = load i32, i32* %4, align 4
  %113 = sext i32 %112 to i64
  %114 = getelementptr inbounds [150 x i8], [150 x i8]* %2, i64 0, i64 %113
  %115 = load i8, i8* %114, align 1
  %116 = sext i8 %115 to i32
  %117 = icmp eq i32 %116, 0
  br i1 %117, label %118, label %119

118:                                              ; preds = %111
  br label %163

119:                                              ; preds = %111
  %120 = load i32, i32* %4, align 4
  %121 = sext i32 %120 to i64
  %122 = getelementptr inbounds [150 x i8], [150 x i8]* %2, i64 0, i64 %121
  %123 = load i8, i8* %122, align 1
  %124 = sext i8 %123 to i32
  %125 = icmp eq i32 %124, 33
  br i1 %125, label %126, label %130

126:                                              ; preds = %119
  %127 = load i32, i32* %4, align 4
  %128 = sext i32 %127 to i64
  %129 = getelementptr inbounds [150 x i8], [150 x i8]* %2, i64 0, i64 %128
  store i8 40, i8* %129, align 1
  br label %130

130:                                              ; preds = %126, %119
  %131 = load i32, i32* %4, align 4
  %132 = sext i32 %131 to i64
  %133 = getelementptr inbounds [150 x i8], [150 x i8]* %2, i64 0, i64 %132
  %134 = load i8, i8* %133, align 1
  %135 = sext i8 %134 to i32
  %136 = icmp eq i32 %135, 63
  br i1 %136, label %137, label %141

137:                                              ; preds = %130
  %138 = load i32, i32* %4, align 4
  %139 = sext i32 %138 to i64
  %140 = getelementptr inbounds [150 x i8], [150 x i8]* %2, i64 0, i64 %139
  store i8 41, i8* %140, align 1
  br label %141

141:                                              ; preds = %137, %130
  %142 = load i32, i32* %4, align 4
  %143 = sext i32 %142 to i64
  %144 = getelementptr inbounds [150 x i8], [150 x i8]* %3, i64 0, i64 %143
  %145 = load i8, i8* %144, align 1
  %146 = sext i8 %145 to i32
  %147 = icmp ne i32 %146, 36
  br i1 %147, label %148, label %159

148:                                              ; preds = %141
  %149 = load i32, i32* %4, align 4
  %150 = sext i32 %149 to i64
  %151 = getelementptr inbounds [150 x i8], [150 x i8]* %3, i64 0, i64 %150
  %152 = load i8, i8* %151, align 1
  %153 = sext i8 %152 to i32
  %154 = icmp ne i32 %153, 63
  br i1 %154, label %155, label %159

155:                                              ; preds = %148
  %156 = load i32, i32* %4, align 4
  %157 = sext i32 %156 to i64
  %158 = getelementptr inbounds [150 x i8], [150 x i8]* %3, i64 0, i64 %157
  store i8 32, i8* %158, align 1
  br label %159

159:                                              ; preds = %155, %148, %141
  br label %160

160:                                              ; preds = %159
  %161 = load i32, i32* %4, align 4
  %162 = add nsw i32 %161, 1
  store i32 %162, i32* %4, align 4
  br label %111

163:                                              ; preds = %118
  %164 = getelementptr inbounds [150 x i8], [150 x i8]* %2, i64 0, i64 0
  %165 = call i32 @puts(i8* %164)
  %166 = getelementptr inbounds [150 x i8], [150 x i8]* %3, i64 0, i64 0
  %167 = call i32 @puts(i8* %166)
  br label %168

168:                                              ; preds = %163
  %169 = load i32, i32* %7, align 4
  %170 = add nsw i32 %169, 1
  store i32 %170, i32* %7, align 4
  br label %9

171:                                              ; preds = %9
  ret i32 0
}

; Function Attrs: argmemonly nounwind willreturn
declare void @llvm.memset.p0i8.i64(i8* nocapture writeonly, i8, i64, i1 immarg) #1

declare dso_local i32 @gets(...) #2

; Function Attrs: nounwind readonly
declare dso_local i64 @strlen(i8*) #3

declare dso_local i32 @puts(i8*) #2


!llvm.module.flags = !{!0}
!llvm.ident = !{!1}

!0 = !{i32 1, !"wchar_size", i32 4}
!1 = !{!"clang version 10.0.0-4ubuntu1 "}
